target datalayout = "e-m:e-p270:32:32-p271:32:32-p272:64:64-i64:64-i128:128-f80:128-n8:16:32:64-S128"
target triple = "x86_64-pc-linux-gnu"

%struct.quicklistNode = type { ptr, ptr, ptr, i64, i32 }
%struct.quicklist = type { ptr, ptr, i64, i64, i64, [0 x %struct.quicklistBookmark] }
%struct.quicklistBookmark = type { ptr, ptr }

; Function Attrs: nounwind uwtable
define dso_local void @activeDefragQuickListNodes(ptr noundef %0) #0 {
  %2 = alloca ptr, align 8
  %3 = alloca ptr, align 8
  store ptr %0, ptr %2, align 8, !tbaa !97
  call void @llvm.lifetime.start.p0(i64 8, ptr %3) #10
  %4 = load ptr, ptr %2, align 8, !tbaa !97
  %5 = getelementptr inbounds nuw %struct.quicklist, ptr %4, i32 0, i32 0
  %6 = load ptr, ptr %5, align 8, !tbaa !101
  store ptr %6, ptr %3, align 8, !tbaa !101
  br label %7

7:                                                ; preds = %10, %1
  %8 = load ptr, ptr %3, align 8, !tbaa !101
  %9 = icmp ne ptr %8, null
  br i1 %9, label %10, label %15

10:                                               ; preds = %7
  %11 = load ptr, ptr %2, align 8, !tbaa !97
  call void @activeDefragQuickListNode(ptr noundef %11, ptr noundef %3)
  %12 = load ptr, ptr %3, align 8, !tbaa !101
  %13 = getelementptr inbounds nuw %struct.quicklistNode, ptr %12, i32 0, i32 1
  %14 = load ptr, ptr %13, align 8, !tbaa !105
  store ptr %14, ptr %3, align 8, !tbaa !101
  br label %7, !llvm.loop !107

15:                                               ; preds = %7
  call void @llvm.lifetime.end.p0(i64 8, ptr %3) #10
  ret void
}