; Function Attrs: nounwind uwtable
define dso_local void @activeDefragQuickListNodes(ptr noundef captures(none) %0) local_unnamed_addr #0 {
  %2 = alloca ptr, align 8
  call void @llvm.lifetime.start.p0(i64 8, ptr nonnull %2) #10
  %storemerge2 = load ptr, ptr %0, align 8, !tbaa !83
  store ptr %storemerge2, ptr %2, align 8, !tbaa !83
  %.not3 = icmp eq ptr %storemerge2, null
  br i1 %.not3, label %._crit_edge, label %.lr.ph

.lr.ph:                                           ; preds = %1, %.lr.ph
  call void @activeDefragQuickListNode(ptr noundef nonnull %0, ptr noundef nonnull %2)
  %3 = load ptr, ptr %2, align 8, !tbaa !83
  %4 = getelementptr inbounds nuw i8, ptr %3, i64 8
  %storemerge = load ptr, ptr %4, align 8, !tbaa !83
  store ptr %storemerge, ptr %2, align 8, !tbaa !83
  %.not = icmp eq ptr %storemerge, null
  br i1 %.not, label %._crit_edge, label %.lr.ph, !llvm.loop !89

._crit_edge:                                      ; preds = %.lr.ph, %1
  call void @llvm.lifetime.end.p0(i64 8, ptr nonnull %2) #10
  ret void
}